target datalayout = "e-m:e-p270:32:32-p271:32:32-p272:64:64-i64:64-i128:128-f80:128-n8:16:32:64-S128"
target triple = "x86_64-pc-linux-gnu"

%struct.Curl_handler = type { ptr, ptr, ptr, ptr, ptr, ptr, ptr, ptr, ptr, ptr, ptr, ptr, ptr, ptr, ptr, ptr, ptr, ptr, i32, i32, i32, i32 }
%struct.Curl_llist_node = type { ptr, ptr, ptr, ptr }
%struct.easy_pollset = type { [5 x i32], i32, [5 x i8] }
%struct.curltime = type { i64, i32 }
%struct.ssl_primary_config = type { ptr, ptr, ptr, ptr, ptr, ptr, ptr, ptr, ptr, ptr, ptr, ptr, ptr, ptr, i8, i32, i8, i8 }
%struct.dynbuf = type { ptr, i64, i64, i64 }
%struct.Curl_llist = type { ptr, ptr, ptr, i64 }
%struct.ip_quadruple = type { [46 x i8], [46 x i8], i32, i32 }
%struct.connectdata = type { %struct.Curl_llist_node, ptr, ptr, i64, ptr, i64, ptr, ptr, %struct.hostname, ptr, ptr, %struct.hostname, %struct.proxy_info, %struct.proxy_info, %struct.ip_quadruple, %struct.ip_quadruple, ptr, ptr, ptr, ptr, ptr, %struct.curltime, %struct.curltime, %struct.curltime, [2 x i32], [2 x ptr], [2 x ptr], [2 x ptr], %struct.anon, %struct.easy_pollset, %struct.ssl_primary_config, %struct.ssl_primary_config, %struct.ConnectBits, ptr, ptr, %struct.curltime, i32, i32, %struct.Curl_llist, i32, i32, %struct.ntlmdata, %struct.ntlmdata, %union.anon.1, ptr, ptr, i16, i32, i32, i32, i32, i16, i16, i8, i8, i8, i8, i8, i8, i8 }
%struct.hostname = type { ptr, ptr, ptr, ptr }
%struct.proxy_info = type { %struct.hostname, i32, i8, ptr, ptr }
%struct.anon = type { [2 x %struct.curltime], i32 }
%struct.ConnectBits = type { i64 }
%struct.ntlmdata = type { i32, [8 x i8], i32, ptr }
%union.anon.1 = type { %struct.ftp_conn }
%struct.ftp_conn = type { %struct.pingpong, ptr, ptr, ptr, ptr, ptr, ptr, ptr, i8, i64, ptr, i64, i32, i32, i32, i32, i32, i16, i8, i8, i8, i8, i8 }
%struct.pingpong = type { i64, i8, ptr, i64, i64, %struct.curltime, i64, %struct.dynbuf, %struct.dynbuf, i64, i64, ptr, ptr }

@.str.72 = private unnamed_addr constant [9 x i8] c"%u/%d/%s\00", align 1

; Function Attrs: nounwind uwtable
define internal i32 @setup_connection_internals(ptr noundef %0, ptr noundef %1) #0 {
  %3 = alloca i32, align 4
  %4 = alloca ptr, align 8
  %5 = alloca ptr, align 8
  %6 = alloca ptr, align 8
  %7 = alloca ptr, align 8
  %8 = alloca i32, align 4
  %9 = alloca i32, align 4
  %10 = alloca i32, align 4
  store ptr %0, ptr %4, align 8, !tbaa !3
  store ptr %1, ptr %5, align 8, !tbaa !181
  call void @llvm.lifetime.start.p0(i64 8, ptr %6) #8
  call void @llvm.lifetime.start.p0(i64 8, ptr %7) #8
  call void @llvm.lifetime.start.p0(i64 4, ptr %8) #8
  call void @llvm.lifetime.start.p0(i64 4, ptr %9) #8
  %11 = load ptr, ptr %5, align 8, !tbaa !181
  %12 = getelementptr inbounds nuw %struct.connectdata, ptr %11, i32 0, i32 33
  %13 = load ptr, ptr %12, align 8, !tbaa !218
  store ptr %13, ptr %6, align 8, !tbaa !238
  %14 = load ptr, ptr %6, align 8, !tbaa !238
  %15 = getelementptr inbounds nuw %struct.Curl_handler, ptr %14, i32 0, i32 1
  %16 = load ptr, ptr %15, align 8, !tbaa !308
  %17 = icmp ne ptr %16, null
  br i1 %17, label %18, label %33

18:                                               ; preds = %2
  %19 = load ptr, ptr %6, align 8, !tbaa !238
  %20 = getelementptr inbounds nuw %struct.Curl_handler, ptr %19, i32 0, i32 1
  %21 = load ptr, ptr %20, align 8, !tbaa !308
  %22 = load ptr, ptr %4, align 8, !tbaa !3
  %23 = load ptr, ptr %5, align 8, !tbaa !181
  %24 = call i32 %21(ptr noundef %22, ptr noundef %23)
  store i32 %24, ptr %9, align 4, !tbaa !8
  %25 = load i32, ptr %9, align 4, !tbaa !8
  %26 = icmp ne i32 %25, 0
  br i1 %26, label %27, label %29

27:                                               ; preds = %18
  %28 = load i32, ptr %9, align 4, !tbaa !8
  store i32 %28, ptr %3, align 4
  store i32 1, ptr %10, align 4
  br label %125

29:                                               ; preds = %18
  %30 = load ptr, ptr %5, align 8, !tbaa !181
  %31 = getelementptr inbounds nuw %struct.connectdata, ptr %30, i32 0, i32 33
  %32 = load ptr, ptr %31, align 8, !tbaa !218
  store ptr %32, ptr %6, align 8, !tbaa !238
  br label %33

33:                                               ; preds = %29, %2
  %34 = load ptr, ptr %5, align 8, !tbaa !181
  %35 = getelementptr inbounds nuw %struct.connectdata, ptr %34, i32 0, i32 14
  %36 = getelementptr inbounds nuw %struct.ip_quadruple, ptr %35, i32 0, i32 2
  %37 = load i32, ptr %36, align 4, !tbaa !233
  %38 = icmp slt i32 %37, 0
  br i1 %38, label %39, label %46

39:                                               ; preds = %33
  %40 = load ptr, ptr %6, align 8, !tbaa !238
  %41 = getelementptr inbounds nuw %struct.Curl_handler, ptr %40, i32 0, i32 18
  %42 = load i32, ptr %41, align 8, !tbaa !309
  %43 = load ptr, ptr %5, align 8, !tbaa !181
  %44 = getelementptr inbounds nuw %struct.connectdata, ptr %43, i32 0, i32 14
  %45 = getelementptr inbounds nuw %struct.ip_quadruple, ptr %44, i32 0, i32 2
  store i32 %42, ptr %45, align 4, !tbaa !233
  br label %46

46:                                               ; preds = %39, %33
  %47 = load ptr, ptr %5, align 8, !tbaa !181
  %48 = getelementptr inbounds nuw %struct.connectdata, ptr %47, i32 0, i32 32
  %49 = load i64, ptr %48, align 8
  %50 = and i64 %49, 1
  %51 = trunc i64 %50 to i32
  %52 = icmp ne i32 %51, 0
  br i1 %52, label %53, label %71

53:                                               ; preds = %46
  %54 = load ptr, ptr %5, align 8, !tbaa !181
  %55 = getelementptr inbounds nuw %struct.connectdata, ptr %54, i32 0, i32 32
  %56 = load i64, ptr %55, align 8
  %57 = lshr i64 %56, 3
  %58 = and i64 %57, 1
  %59 = trunc i64 %58 to i32
  %60 = icmp ne i32 %59, 0
  br i1 %60, label %71, label %61

61:                                               ; preds = %53
  %62 = load ptr, ptr %5, align 8, !tbaa !181
  %63 = getelementptr inbounds nuw %struct.connectdata, ptr %62, i32 0, i32 13
  %64 = getelementptr inbounds nuw %struct.proxy_info, ptr %63, i32 0, i32 0
  %65 = getelementptr inbounds nuw %struct.hostname, ptr %64, i32 0, i32 2
  %66 = load ptr, ptr %65, align 8, !tbaa !260
  store ptr %66, ptr %7, align 8, !tbaa !11
  %67 = load ptr, ptr %5, align 8, !tbaa !181
  %68 = getelementptr inbounds nuw %struct.connectdata, ptr %67, i32 0, i32 14
  %69 = getelementptr inbounds nuw %struct.ip_quadruple, ptr %68, i32 0, i32 2
  %70 = load i32, ptr %69, align 4, !tbaa !233
  store i32 %70, ptr %8, align 4, !tbaa !8
  br label %93

71:                                               ; preds = %53, %46
  %72 = load ptr, ptr %5, align 8, !tbaa !181
  %73 = getelementptr inbounds nuw %struct.connectdata, ptr %72, i32 0, i32 48
  %74 = load i32, ptr %73, align 8, !tbaa !253
  store i32 %74, ptr %8, align 4, !tbaa !8
  %75 = load ptr, ptr %5, align 8, !tbaa !181
  %76 = getelementptr inbounds nuw %struct.connectdata, ptr %75, i32 0, i32 32
  %77 = load i64, ptr %76, align 8
  %78 = lshr i64 %77, 8
  %79 = and i64 %78, 1
  %80 = trunc i64 %79 to i32
  %81 = icmp ne i32 %80, 0
  br i1 %81, label %82, label %87

82:                                               ; preds = %71
  %83 = load ptr, ptr %5, align 8, !tbaa !181
  %84 = getelementptr inbounds nuw %struct.connectdata, ptr %83, i32 0, i32 11
  %85 = getelementptr inbounds nuw %struct.hostname, ptr %84, i32 0, i32 2
  %86 = load ptr, ptr %85, align 8, !tbaa !250
  store ptr %86, ptr %7, align 8, !tbaa !11
  br label %92

87:                                               ; preds = %71
  %88 = load ptr, ptr %5, align 8, !tbaa !181
  %89 = getelementptr inbounds nuw %struct.connectdata, ptr %88, i32 0, i32 8
  %90 = getelementptr inbounds nuw %struct.hostname, ptr %89, i32 0, i32 2
  %91 = load ptr, ptr %90, align 8, !tbaa !251
  store ptr %91, ptr %7, align 8, !tbaa !11
  br label %92

92:                                               ; preds = %87, %82
  br label %93

93:                                               ; preds = %92, %61
  %94 = load ptr, ptr %5, align 8, !tbaa !181
  %95 = getelementptr inbounds nuw %struct.connectdata, ptr %94, i32 0, i32 50
  %96 = load i32, ptr %95, align 8, !tbaa !290
  %97 = load i32, ptr %8, align 4, !tbaa !8
  %98 = load ptr, ptr %7, align 8, !tbaa !11
  %99 = call ptr (ptr, ...) @curl_maprintf(ptr noundef @.str.72, i32 noundef %96, i32 noundef %97, ptr noundef %98)
  %100 = load ptr, ptr %5, align 8, !tbaa !181
  %101 = getelementptr inbounds nuw %struct.connectdata, ptr %100, i32 0, i32 4
  store ptr %99, ptr %101, align 8, !tbaa !209
  %102 = load ptr, ptr %5, align 8, !tbaa !181
  %103 = getelementptr inbounds nuw %struct.connectdata, ptr %102, i32 0, i32 4
  %104 = load ptr, ptr %103, align 8, !tbaa !209
  %105 = icmp ne ptr %104, null
  br i1 %105, label %107, label %106

106:                                              ; preds = %93
  store i32 27, ptr %3, align 4
  store i32 1, ptr %10, align 4
  br label %125

107:                                              ; preds = %93
  %108 = load ptr, ptr %5, align 8, !tbaa !181
  %109 = getelementptr inbounds nuw %struct.connectdata, ptr %108, i32 0, i32 4
  %110 = load ptr, ptr %109, align 8, !tbaa !209
  %111 = call i64 @strlen(ptr noundef %110) #9
  %112 = add i64 %111, 1
  %113 = load ptr, ptr %5, align 8, !tbaa !181
  %114 = getelementptr inbounds nuw %struct.connectdata, ptr %113, i32 0, i32 5
  store i64 %112, ptr %114, align 8, !tbaa !310
  %115 = load ptr, ptr %5, align 8, !tbaa !181
  %116 = getelementptr inbounds nuw %struct.connectdata, ptr %115, i32 0, i32 4
  %117 = load ptr, ptr %116, align 8, !tbaa !209
  %118 = load ptr, ptr %5, align 8, !tbaa !181
  %119 = getelementptr inbounds nuw %struct.connectdata, ptr %118, i32 0, i32 4
  %120 = load ptr, ptr %119, align 8, !tbaa !209
  %121 = load ptr, ptr %5, align 8, !tbaa !181
  %122 = getelementptr inbounds nuw %struct.connectdata, ptr %121, i32 0, i32 5
  %123 = load i64, ptr %122, align 8, !tbaa !310
  %124 = sub i64 %123, 1
  call void @Curl_strntolower(ptr noundef %117, ptr noundef %120, i64 noundef %124)
  store i32 0, ptr %3, align 4
  store i32 1, ptr %10, align 4
  br label %125

125:                                              ; preds = %107, %106, %27
  call void @llvm.lifetime.end.p0(i64 4, ptr %9) #8
  call void @llvm.lifetime.end.p0(i64 4, ptr %8) #8
  call void @llvm.lifetime.end.p0(i64 8, ptr %7) #8
  call void @llvm.lifetime.end.p0(i64 8, ptr %6) #8
  %126 = load i32, ptr %3, align 4
  ret i32 %126
}